; ModuleID = '35/1522.c'
source_filename = "35/1522.c"
target datalayout = "e-m:e-p270:32:32-p271:32:32-p272:64:64-i64:64-f80:128-n8:16:32:64-S128"
target triple = "x86_64-pc-linux-gnu"

@.str = private unnamed_addr constant [6 x i8] c"%d,%d\00", align 1
@.str.1 = private unnamed_addr constant [3 x i8] c"%d\00", align 1
@.str.2 = private unnamed_addr constant [6 x i8] c"%d+%d\00", align 1
@.str.3 = private unnamed_addr constant [3 x i8] c"No\00", align 1

; Function Attrs: noinline nounwind uwtable
define dso_local i32 @main(i32 %0, i8** %1) #0 {
  %3 = alloca i32, align 4
  %4 = alloca i32, align 4
  %5 = alloca i8**, align 8
  %6 = alloca [8 x [8 x i32]], align 16
  %7 = alloca i32, align 4
  %8 = alloca i32, align 4
  %9 = alloca i32, align 4
  %10 = alloca i32, align 4
  %11 = alloca i32, align 4
  %12 = alloca i32, align 4
  %13 = alloca i32, align 4
  %14 = alloca i32, align 4
  %15 = alloca i32, align 4
  %16 = alloca i32, align 4
  store i32 0, i32* %3, align 4
  store i32 %0, i32* %4, align 4
  store i8** %1, i8*** %5, align 8
  %17 = call i32 (i8*, ...) @__isoc99_scanf(i8* getelementptr inbounds ([6 x i8], [6 x i8]* @.str, i64 0, i64 0), i32* %7, i32* %8)
  %18 = load i32, i32* %7, align 4
  %19 = sub nsw i32 %18, 1
  store i32 %19, i32* %7, align 4
  %20 = load i32, i32* %8, align 4
  %21 = sub nsw i32 %20, 1
  store i32 %21, i32* %8, align 4
  store i32 0, i32* %16, align 4
  store i32 0, i32* %9, align 4
  br label %22

22:                                               ; preds = %43, %2
  %23 = load i32, i32* %9, align 4
  %24 = load i32, i32* %7, align 4
  %25 = icmp sle i32 %23, %24
  br i1 %25, label %26, label %46

26:                                               ; preds = %22
  store i32 0, i32* %10, align 4
  br label %27

27:                                               ; preds = %39, %26
  %28 = load i32, i32* %10, align 4
  %29 = load i32, i32* %8, align 4
  %30 = icmp sle i32 %28, %29
  br i1 %30, label %31, label %42

31:                                               ; preds = %27
  %32 = load i32, i32* %9, align 4
  %33 = sext i32 %32 to i64
  %34 = getelementptr inbounds [8 x [8 x i32]], [8 x [8 x i32]]* %6, i64 0, i64 %33
  %35 = load i32, i32* %10, align 4
  %36 = sext i32 %35 to i64
  %37 = getelementptr inbounds [8 x i32], [8 x i32]* %34, i64 0, i64 %36
  %38 = call i32 (i8*, ...) @__isoc99_scanf(i8* getelementptr inbounds ([3 x i8], [3 x i8]* @.str.1, i64 0, i64 0), i32* %37)
  br label %39

39:                                               ; preds = %31
  %40 = load i32, i32* %10, align 4
  %41 = add nsw i32 %40, 1
  store i32 %41, i32* %10, align 4
  br label %27

42:                                               ; preds = %27
  br label %43

43:                                               ; preds = %42
  %44 = load i32, i32* %9, align 4
  %45 = add nsw i32 %44, 1
  store i32 %45, i32* %9, align 4
  br label %22

46:                                               ; preds = %22
  store i32 0, i32* %9, align 4
  br label %47

47:                                               ; preds = %124, %46
  %48 = load i32, i32* %9, align 4
  %49 = load i32, i32* %7, align 4
  %50 = icmp sle i32 %48, %49
  br i1 %50, label %51, label %127

51:                                               ; preds = %47
  store i32 0, i32* %10, align 4
  br label %52

52:                                               ; preds = %120, %51
  %53 = load i32, i32* %10, align 4
  %54 = load i32, i32* %8, align 4
  %55 = icmp sle i32 %53, %54
  br i1 %55, label %56, label %123

56:                                               ; preds = %52
  %57 = load i32, i32* %9, align 4
  %58 = sext i32 %57 to i64
  %59 = getelementptr inbounds [8 x [8 x i32]], [8 x [8 x i32]]* %6, i64 0, i64 %58
  %60 = load i32, i32* %10, align 4
  %61 = sext i32 %60 to i64
  %62 = getelementptr inbounds [8 x i32], [8 x i32]* %59, i64 0, i64 %61
  %63 = load i32, i32* %62, align 4
  store i32 %63, i32* %11, align 4
  store i32 0, i32* %12, align 4
  store i32 0, i32* %14, align 4
  br label %64

64:                                               ; preds = %82, %56
  %65 = load i32, i32* %14, align 4
  %66 = load i32, i32* %7, align 4
  %67 = icmp sle i32 %65, %66
  br i1 %67, label %68, label %85

68:                                               ; preds = %64
  %69 = load i32, i32* %11, align 4
  %70 = load i32, i32* %14, align 4
  %71 = sext i32 %70 to i64
  %72 = getelementptr inbounds [8 x [8 x i32]], [8 x [8 x i32]]* %6, i64 0, i64 %71
  %73 = load i32, i32* %10, align 4
  %74 = sext i32 %73 to i64
  %75 = getelementptr inbounds [8 x i32], [8 x i32]* %72, i64 0, i64 %74
  %76 = load i32, i32* %75, align 4
  %77 = icmp slt i32 %69, %76
  br i1 %77, label %78, label %81

78:                                               ; preds = %68
  %79 = load i32, i32* %12, align 4
  %80 = add nsw i32 %79, 1
  store i32 %80, i32* %12, align 4
  br label %81

81:                                               ; preds = %78, %68
  br label %82

82:                                               ; preds = %81
  %83 = load i32, i32* %14, align 4
  %84 = add nsw i32 %83, 1
  store i32 %84, i32* %14, align 4
  br label %64

85:                                               ; preds = %64
  store i32 0, i32* %13, align 4
  store i32 0, i32* %15, align 4
  br label %86

86:                                               ; preds = %104, %85
  %87 = load i32, i32* %15, align 4
  %88 = load i32, i32* %8, align 4
  %89 = icmp sle i32 %87, %88
  br i1 %89, label %90, label %107

90:                                               ; preds = %86
  %91 = load i32, i32* %11, align 4
  %92 = load i32, i32* %9, align 4
  %93 = sext i32 %92 to i64
  %94 = getelementptr inbounds [8 x [8 x i32]], [8 x [8 x i32]]* %6, i64 0, i64 %93
  %95 = load i32, i32* %15, align 4
  %96 = sext i32 %95 to i64
  %97 = getelementptr inbounds [8 x i32], [8 x i32]* %94, i64 0, i64 %96
  %98 = load i32, i32* %97, align 4
  %99 = icmp sgt i32 %91, %98
  br i1 %99, label %100, label %103

100:                                              ; preds = %90
  %101 = load i32, i32* %13, align 4
  %102 = add nsw i32 %101, 1
  store i32 %102, i32* %13, align 4
  br label %103

103:                                              ; preds = %100, %90
  br label %104

104:                                              ; preds = %103
  %105 = load i32, i32* %15, align 4
  %106 = add nsw i32 %105, 1
  store i32 %106, i32* %15, align 4
  br label %86

107:                                              ; preds = %86
  %108 = load i32, i32* %12, align 4
  %109 = load i32, i32* %7, align 4
  %110 = icmp eq i32 %108, %109
  br i1 %110, label %111, label %119

111:                                              ; preds = %107
  %112 = load i32, i32* %13, align 4
  %113 = load i32, i32* %8, align 4
  %114 = icmp eq i32 %112, %113
  br i1 %114, label %115, label %119

115:                                              ; preds = %111
  %116 = load i32, i32* %9, align 4
  %117 = load i32, i32* %10, align 4
  %118 = call i32 (i8*, ...) @printf(i8* getelementptr inbounds ([6 x i8], [6 x i8]* @.str.2, i64 0, i64 0), i32 %116, i32 %117)
  store i32 1, i32* %16, align 4
  br label %119

119:                                              ; preds = %115, %111, %107
  br label %120

120:                                              ; preds = %119
  %121 = load i32, i32* %10, align 4
  %122 = add nsw i32 %121, 1
  store i32 %122, i32* %10, align 4
  br label %52

123:                                              ; preds = %52
  br label %124

124:                                              ; preds = %123
  %125 = load i32, i32* %9, align 4
  %126 = add nsw i32 %125, 1
  store i32 %126, i32* %9, align 4
  br label %47

127:                                              ; preds = %47
  %128 = load i32, i32* %16, align 4
  %129 = icmp eq i32 %128, 0
  br i1 %129, label %130, label %132

130:                                              ; preds = %127
  %131 = call i32 (i8*, ...) @printf(i8* getelementptr inbounds ([3 x i8], [3 x i8]* @.str.3, i64 0, i64 0))
  br label %132

132:                                              ; preds = %130, %127
  ret i32 0
}

declare dso_local i32 @__isoc99_scanf(i8*, ...) #1

declare dso_local i32 @printf(i8*, ...) #1


!llvm.module.flags = !{!0}
!llvm.ident = !{!1}

!0 = !{i32 1, !"wchar_size", i32 4}
!1 = !{!"clang version 10.0.0-4ubuntu1 "}
